; Function Attrs: mustprogress nofree norecurse nosync nounwind willreturn memory(argmem: write) uwtable
define void @_ZN8QuantLib13IntervalPrice9setValuesEdddd(ptr nocapture noundef nonnull writeonly align 8 dereferenceable(32) %this, double noundef %open, double noundef %close, double noundef %high, double noundef %low) local_unnamed_addr #6 align 2 {
entry:
  store double %open, ptr %this, align 8, !tbaa !18
  %close_ = getelementptr inbounds nuw i8, ptr %this, i64 8
  store double %close, ptr %close_, align 8, !tbaa !21
  %high_ = getelementptr inbounds nuw i8, ptr %this, i64 16
  store double %high, ptr %high_, align 8, !tbaa !22
  %low_ = getelementptr inbounds nuw i8, ptr %this, i64 24
  store double %low, ptr %low_, align 8, !tbaa !23
  ret void
}